target datalayout = "e-m:e-p270:32:32-p271:32:32-p272:64:64-i64:64-i128:128-f80:128-n8:16:32:64-S128"
target triple = "x86_64-pc-linux-gnu"

%"class.tbb::detail::r1::basic_tls" = type { i32 }
%"class.tbb::detail::r1::thread_data" = type { %"struct.tbb::detail::d1::intrusive_list_node", i16, i8, i8, ptr, ptr, ptr, ptr, %"class.tbb::detail::r1::mail_inbox", %"class.tbb::detail::r1::FastRandom", ptr, ptr, ptr, i32, ptr, %"class.tbb::detail::d1::task_group_context" }
%"struct.tbb::detail::d1::intrusive_list_node" = type { ptr, ptr }
%"class.tbb::detail::r1::mail_inbox" = type { ptr }
%"class.tbb::detail::r1::FastRandom" = type { i32, i32 }
%"class.tbb::detail::d1::task_group_context" = type { i64, %"struct.std::atomic.4", i8, %"struct.tbb::detail::d1::task_group_context::context_traits", %"struct.std::atomic.6", %"struct.std::atomic.8", %union.anon, ptr, %"struct.tbb::detail::d1::intrusive_list_node", %"struct.std::atomic.9", ptr, i64, [56 x i8] }
%"struct.std::atomic.4" = type { %"struct.std::__atomic_base.5" }
%"struct.std::__atomic_base.5" = type { i32 }
%"struct.tbb::detail::d1::task_group_context::context_traits" = type { i8 }
%"struct.std::atomic.6" = type { %"struct.std::__atomic_base.7" }
%"struct.std::__atomic_base.7" = type { i8 }
%"struct.std::atomic.8" = type { i8 }
%union.anon = type { ptr }
%"struct.std::atomic.9" = type { %"struct.std::__atomic_base.10" }
%"struct.std::__atomic_base.10" = type { ptr }
%"struct.tbb::detail::r1::arena_base" = type { %"struct.tbb::detail::d0::padded.11", %"struct.std::atomic.4", %"struct.std::atomic.4", %"struct.std::atomic.4", [4 x i8], %"class.tbb::detail::r1::task_stream", %"class.tbb::detail::r1::task_stream", %"class.tbb::detail::r1::task_stream.15", i32, i32, %"struct.std::atomic", %"class.tbb::detail::r1::atomic_flag", %"class.tbb::detail::r1::observer_list", ptr, ptr, ptr, %"class.tbb::detail::r1::concurrent_monitor", %"class.tbb::detail::r1::arena_co_cache", %"class.tbb::detail::r1::atomic_flag", i32, i32, i32, i32, %"class.tbb::detail::r1::threading_control_client" }
%"struct.tbb::detail::d0::padded.11" = type { %"struct.tbb::detail::d0::padded_base.12" }
%"struct.tbb::detail::d0::padded_base.12" = type { %"struct.tbb::detail::d1::intrusive_list_node", [112 x i8] }
%"class.tbb::detail::r1::task_stream" = type <{ %"struct.std::atomic.13", ptr, i32, [4 x i8] }>
%"struct.std::atomic.13" = type { %"struct.std::__atomic_base.14" }
%"struct.std::__atomic_base.14" = type { i64 }
%"class.tbb::detail::r1::task_stream.15" = type <{ %"struct.std::atomic.13", ptr, i32, [4 x i8] }>
%"struct.std::atomic" = type { %"struct.std::__atomic_base" }
%"struct.std::__atomic_base" = type { i8 }
%"class.tbb::detail::r1::observer_list" = type { %"struct.std::atomic.18", %"struct.std::atomic.18", %"class.tbb::detail::d0::aligned_space", ptr }
%"struct.std::atomic.18" = type { %"struct.std::__atomic_base.19" }
%"struct.std::__atomic_base.19" = type { ptr }
%"class.tbb::detail::d0::aligned_space" = type { [8 x i8] }
%"class.tbb::detail::r1::concurrent_monitor" = type { %"class.tbb::detail::r1::concurrent_monitor_base.base", [4 x i8] }
%"class.tbb::detail::r1::concurrent_monitor_base.base" = type <{ %"class.tbb::detail::r1::concurrent_monitor_mutex", %"class.tbb::detail::r1::circular_doubly_linked_list_with_sentinel", %"struct.std::atomic.4" }>
%"class.tbb::detail::r1::concurrent_monitor_mutex" = type { %"struct.std::atomic.0", %"struct.std::atomic.0" }
%"struct.std::atomic.0" = type { %"struct.std::__atomic_base.1" }
%"struct.std::__atomic_base.1" = type { i32 }
%"class.tbb::detail::r1::circular_doubly_linked_list_with_sentinel" = type { %"struct.std::atomic.13", %"struct.tbb::detail::r1::circular_doubly_linked_list_with_sentinel::base_node" }
%"struct.tbb::detail::r1::circular_doubly_linked_list_with_sentinel::base_node" = type { ptr, ptr }
%"class.tbb::detail::r1::arena_co_cache" = type <{ ptr, i32, i32, %"class.tbb::detail::d1::spin_mutex", [7 x i8] }>
%"class.tbb::detail::d1::spin_mutex" = type { %"struct.std::atomic" }
%"class.tbb::detail::r1::atomic_flag" = type { %"struct.std::atomic.13" }
%"class.tbb::detail::r1::threading_control_client" = type { ptr, ptr }
%"class.tbb::detail::d1::task_arena_base" = type { i64, %"struct.std::atomic.37", %"struct.std::atomic.38", i32, i32, i32, i32, i32, i32 }
%"struct.std::atomic.37" = type { i32 }
%"struct.std::atomic.38" = type { %"struct.std::__atomic_base.39" }
%"struct.std::__atomic_base.39" = type { ptr }

@_ZN3tbb6detail2r18governor6theTLSE = external global %"class.tbb::detail::r1::basic_tls", align 4

; Function Attrs: mustprogress nounwind sspstrong uwtable
define linkonce_odr noundef i32 @_ZStanSt12memory_orderSt23__memory_order_modifier(i32 noundef %0, i32 noundef %1) #1 comdat {
  %3 = alloca i32, align 4
  %4 = alloca i32, align 4
  store i32 %0, ptr %3, align 4, !tbaa !102
  store i32 %1, ptr %4, align 4, !tbaa !334
  %5 = load i32, ptr %3, align 4, !tbaa !102
  %6 = load i32, ptr %4, align 4, !tbaa !334
  %7 = and i32 %5, %6
  ret i32 %7
}

; Function Attrs: alwaysinline mustprogress nounwind sspstrong uwtable
define linkonce_odr void @_ZNSt13__atomic_baseIPN3tbb6detail2r15arenaEE5storeES4_St12memory_order(ptr noundef nonnull align 8 dereferenceable(8) %0, ptr noundef %1, i32 noundef %2) #5 comdat align 2 {
  %4 = alloca ptr, align 8
  %5 = alloca ptr, align 8
  %6 = alloca i32, align 4
  %7 = alloca i32, align 4
  %8 = alloca ptr, align 8
  store ptr %0, ptr %4, align 8, !tbaa !580
  store ptr %1, ptr %5, align 8, !tbaa !43
  store i32 %2, ptr %6, align 4, !tbaa !102
  %9 = load ptr, ptr %4, align 8
  call void @llvm.lifetime.start.p0(i64 4, ptr %7) #12
  %10 = load i32, ptr %6, align 4, !tbaa !102
  %11 = call noundef i32 @_ZStanSt12memory_orderSt23__memory_order_modifier(i32 noundef %10, i32 noundef 65535)
  store i32 %11, ptr %7, align 4, !tbaa !102
  br label %12

12:                                               ; preds = %3
  br label %13

13:                                               ; preds = %12
  br label %14

14:                                               ; preds = %13
  br label %15

15:                                               ; preds = %14
  br label %16

16:                                               ; preds = %15
  br label %17

17:                                               ; preds = %16
  br label %18

18:                                               ; preds = %17
  br label %19

19:                                               ; preds = %18
  br label %20

20:                                               ; preds = %19
  %21 = getelementptr inbounds nuw %"struct.std::__atomic_base.39", ptr %9, i32 0, i32 0
  %22 = load i32, ptr %6, align 4, !tbaa !102
  %23 = load ptr, ptr %5, align 8, !tbaa !43
  store ptr %23, ptr %8, align 8, !tbaa !43
  switch i32 %22, label %24 [
    i32 3, label %26
    i32 5, label %28
  ]

24:                                               ; preds = %20
  %25 = load i64, ptr %8, align 8
  store atomic i64 %25, ptr %21 monotonic, align 8
  br label %30

26:                                               ; preds = %20
  %27 = load i64, ptr %8, align 8
  store atomic i64 %27, ptr %21 release, align 8
  br label %30

28:                                               ; preds = %20
  %29 = load i64, ptr %8, align 8
  store atomic i64 %29, ptr %21 seq_cst, align 8
  br label %30

30:                                               ; preds = %28, %26, %24
  call void @llvm.lifetime.end.p0(i64 4, ptr %7) #12
  ret void
}

; Function Attrs: mustprogress nounwind sspstrong uwtable
define void @_ZN3tbb6detail2r127assert_arena_priority_validENS0_2d115task_arena_base8priorityE(i32 noundef %0) #1 {
  %2 = alloca i32, align 4
  store i32 %0, ptr %2, align 4, !tbaa !235
  ret void
}

; Function Attrs: mustprogress nounwind sspstrong uwtable
define linkonce_odr noundef ptr @_ZN3tbb6detail2r19basic_tlsIPNS1_11thread_dataEE3getEv(ptr noundef nonnull align 4 dereferenceable(4) %0) #1 comdat align 2 {
  %2 = alloca ptr, align 8
  store ptr %0, ptr %2, align 8, !tbaa !353
  %3 = load ptr, ptr %2, align 8
  %4 = getelementptr inbounds nuw %"class.tbb::detail::r1::basic_tls", ptr %3, i32 0, i32 0
  %5 = load i32, ptr %4, align 4, !tbaa !355
  %6 = call ptr @pthread_getspecific(i32 noundef %5) #12
  ret ptr %6
}

; Function Attrs: mustprogress nounwind sspstrong uwtable
define linkonce_odr void @_ZNSt6atomicIPN3tbb6detail2r15arenaEE5storeES4_St12memory_order(ptr noundef nonnull align 8 dereferenceable(8) %0, ptr noundef %1, i32 noundef %2) #1 comdat align 2 {
  %4 = alloca ptr, align 8
  %5 = alloca ptr, align 8
  %6 = alloca i32, align 4
  store ptr %0, ptr %4, align 8, !tbaa !264
  store ptr %1, ptr %5, align 8, !tbaa !43
  store i32 %2, ptr %6, align 4, !tbaa !102
  %7 = load ptr, ptr %4, align 8
  %8 = getelementptr inbounds nuw %"struct.std::atomic.38", ptr %7, i32 0, i32 0
  %9 = load ptr, ptr %5, align 8, !tbaa !43
  %10 = load i32, ptr %6, align 4, !tbaa !102
  call void @_ZNSt13__atomic_baseIPN3tbb6detail2r15arenaEE5storeES4_St12memory_order(ptr noundef nonnull align 8 dereferenceable(8) %8, ptr noundef %9, i32 noundef %10) #12
  ret void
}

; Function Attrs: mustprogress nounwind sspstrong uwtable
define noundef i32 @_ZN3tbb6detail2r114arena_priorityEj(i32 noundef %0) #1 {
  %2 = alloca i32, align 4
  %3 = alloca i32, align 4
  store i32 %0, ptr %2, align 4, !tbaa !79
  call void @llvm.lifetime.start.p0(i64 4, ptr %3) #12
  %4 = load i32, ptr %2, align 4, !tbaa !79
  %5 = sub i32 3, %4
  %6 = mul i32 %5, 536870911
  store i32 %6, ptr %3, align 4, !tbaa !235
  %7 = load i32, ptr %3, align 4, !tbaa !235
  call void @_ZN3tbb6detail2r127assert_arena_priority_validENS0_2d115task_arena_base8priorityE(i32 noundef %7)
  %8 = load i32, ptr %3, align 4, !tbaa !235
  call void @llvm.lifetime.end.p0(i64 4, ptr %3) #12
  ret i32 %8
}

; Function Attrs: mustprogress nounwind sspstrong uwtable
define linkonce_odr noundef i32 @_ZNSt13__atomic_baseIjEpLEj(ptr noundef nonnull align 4 dereferenceable(4) %0, i32 noundef %1) #1 comdat align 2 {
  %3 = alloca ptr, align 8
  %4 = alloca i32, align 4
  %5 = alloca i32, align 4
  %6 = alloca i32, align 4
  store ptr %0, ptr %3, align 8, !tbaa !109
  store i32 %1, ptr %4, align 4, !tbaa !79
  %7 = load ptr, ptr %3, align 8
  %8 = getelementptr inbounds nuw %"struct.std::__atomic_base.5", ptr %7, i32 0, i32 0
  %9 = load i32, ptr %4, align 4, !tbaa !79
  store i32 %9, ptr %5, align 4, !tbaa !79
  %10 = load i32, ptr %5, align 4
  %11 = atomicrmw add ptr %8, i32 %10 seq_cst, align 4
  %12 = add i32 %11, %10
  store i32 %12, ptr %6, align 4
  %13 = load i32, ptr %6, align 4, !tbaa !79
  ret i32 %13
}

; Function Attrs: mustprogress nounwind sspstrong uwtable
define linkonce_odr noundef ptr @_ZN3tbb6detail2r18governor30get_thread_data_if_initializedEv() #1 comdat align 2 {
  %1 = call noundef ptr @_ZN3tbb6detail2r19basic_tlsIPNS1_11thread_dataEE3getEv(ptr noundef nonnull align 4 dereferenceable(4) @_ZN3tbb6detail2r18governor6theTLSE)
  ret ptr %1
}

; Function Attrs: mustprogress sspstrong uwtable
define noundef zeroext i1 @_ZN3tbb6detail2r115task_arena_impl6attachERNS0_2d115task_arena_baseE(ptr noundef nonnull align 8 dereferenceable(48) %0) #2 align 2 {
  %2 = alloca i1, align 1
  %3 = alloca ptr, align 8
  %4 = alloca ptr, align 8
  %5 = alloca ptr, align 8
  %6 = alloca i32, align 4
  store ptr %0, ptr %3, align 8, !tbaa !237
  call void @llvm.lifetime.start.p0(i64 8, ptr %4) #12
  %7 = call noundef ptr @_ZN3tbb6detail2r18governor30get_thread_data_if_initializedEv()
  store ptr %7, ptr %4, align 8, !tbaa !3
  %8 = load ptr, ptr %4, align 8, !tbaa !3
  %9 = icmp ne ptr %8, null
  br i1 %9, label %10, label %46

10:                                               ; preds = %1
  %11 = load ptr, ptr %4, align 8, !tbaa !3
  %12 = getelementptr inbounds nuw %"class.tbb::detail::r1::thread_data", ptr %11, i32 0, i32 5
  %13 = load ptr, ptr %12, align 8, !tbaa !137
  %14 = icmp ne ptr %13, null
  br i1 %14, label %15, label %46

15:                                               ; preds = %10
  call void @llvm.lifetime.start.p0(i64 8, ptr %5) #12
  %16 = load ptr, ptr %4, align 8, !tbaa !3
  %17 = getelementptr inbounds nuw %"class.tbb::detail::r1::thread_data", ptr %16, i32 0, i32 5
  %18 = load ptr, ptr %17, align 8, !tbaa !137
  store ptr %18, ptr %5, align 8, !tbaa !43
  %19 = load ptr, ptr %5, align 8, !tbaa !43
  %20 = getelementptr inbounds nuw %"struct.tbb::detail::r1::arena_base", ptr %19, i32 0, i32 2
  %21 = call noundef i32 @_ZNSt13__atomic_baseIjEpLEj(ptr noundef nonnull align 4 dereferenceable(4) %20, i32 noundef 1) #12
  %22 = load ptr, ptr %5, align 8, !tbaa !43
  %23 = getelementptr inbounds nuw %"struct.tbb::detail::r1::arena_base", ptr %22, i32 0, i32 21
  %24 = load i32, ptr %23, align 8, !tbaa !136
  %25 = load ptr, ptr %3, align 8, !tbaa !237
  %26 = getelementptr inbounds nuw %"class.tbb::detail::d1::task_arena_base", ptr %25, i32 0, i32 4
  store i32 %24, ptr %26, align 4, !tbaa !247
  %27 = load ptr, ptr %5, align 8, !tbaa !43
  %28 = getelementptr inbounds nuw %"struct.tbb::detail::r1::arena_base", ptr %27, i32 0, i32 9
  %29 = load i32, ptr %28, align 4, !tbaa !148
  %30 = call noundef i32 @_ZN3tbb6detail2r114arena_priorityEj(i32 noundef %29)
  %31 = load ptr, ptr %3, align 8, !tbaa !237
  %32 = getelementptr inbounds nuw %"class.tbb::detail::d1::task_arena_base", ptr %31, i32 0, i32 5
  store i32 %30, ptr %32, align 8, !tbaa !248
  %33 = load ptr, ptr %3, align 8, !tbaa !237
  %34 = getelementptr inbounds nuw %"class.tbb::detail::d1::task_arena_base", ptr %33, i32 0, i32 4
  %35 = load i32, ptr %34, align 4, !tbaa !247
  %36 = load ptr, ptr %5, align 8, !tbaa !43
  %37 = getelementptr inbounds nuw %"struct.tbb::detail::r1::arena_base", ptr %36, i32 0, i32 22
  %38 = load i32, ptr %37, align 4, !tbaa !108
  %39 = add i32 %35, %38
  %40 = load ptr, ptr %3, align 8, !tbaa !237
  %41 = getelementptr inbounds nuw %"class.tbb::detail::d1::task_arena_base", ptr %40, i32 0, i32 3
  store i32 %39, ptr %41, align 8, !tbaa !246
  %42 = load ptr, ptr %3, align 8, !tbaa !237
  %43 = getelementptr inbounds nuw %"class.tbb::detail::d1::task_arena_base", ptr %42, i32 0, i32 2
  %44 = load ptr, ptr %5, align 8, !tbaa !43
  call void @_ZNSt6atomicIPN3tbb6detail2r15arenaEE5storeES4_St12memory_order(ptr noundef nonnull align 8 dereferenceable(8) %43, ptr noundef %44, i32 noundef 3) #12
  %45 = call noundef ptr @_ZN3tbb6detail2r117threading_control25register_public_referenceEv()
  store i1 true, ptr %2, align 1
  store i32 1, ptr %6, align 4
  call void @llvm.lifetime.end.p0(i64 8, ptr %5) #12
  br label %47

46:                                               ; preds = %10, %1
  store i1 false, ptr %2, align 1
  store i32 1, ptr %6, align 4
  br label %47

47:                                               ; preds = %46, %15
  call void @llvm.lifetime.end.p0(i64 8, ptr %4) #12
  %48 = load i1, ptr %2, align 1
  ret i1 %48
}

; Function Attrs: mustprogress sspstrong uwtable
define noundef zeroext i1 @_ZN3tbb6detail2r16attachERNS0_2d115task_arena_baseE(ptr noundef nonnull align 8 dereferenceable(48) %0) #2 {
  %2 = alloca ptr, align 8
  store ptr %0, ptr %2, align 8, !tbaa !237
  %3 = load ptr, ptr %2, align 8, !tbaa !237
  %4 = call noundef zeroext i1 @_ZN3tbb6detail2r115task_arena_impl6attachERNS0_2d115task_arena_baseE(ptr noundef nonnull align 8 dereferenceable(48) %3)
  ret i1 %4
}