; Function Attrs: mustprogress sspstrong uwtable
define noundef zeroext i1 @_ZN3tbb6detail2r16attachERNS0_2d115task_arena_baseE(ptr noundef nonnull writeonly align 8 captures(none) dereferenceable(48) %0) local_unnamed_addr #1 {
  %2 = load i32, ptr @_ZN3tbb6detail2r18governor6theTLSE, align 4, !tbaa !111
  %3 = tail call noundef ptr @pthread_getspecific(i32 noundef %2) #13
  %.not.i = icmp eq ptr %3, null
  br i1 %.not.i, label %_ZN3tbb6detail2r115task_arena_impl6attachERNS0_2d115task_arena_baseE.exit, label %4

4:                                                ; preds = %1
  %5 = getelementptr inbounds nuw i8, ptr %3, i64 32
  %6 = load ptr, ptr %5, align 8, !tbaa !115
  %.not16.i = icmp eq ptr %6, null
  br i1 %.not16.i, label %_ZN3tbb6detail2r115task_arena_impl6attachERNS0_2d115task_arena_baseE.exit, label %7

7:                                                ; preds = %4
  %8 = getelementptr inbounds nuw i8, ptr %6, i64 132
  %9 = atomicrmw add ptr %8, i32 1 seq_cst, align 4
  %10 = getelementptr inbounds nuw i8, ptr %6, i64 376
  %11 = load i32, ptr %10, align 8, !tbaa !113
  %12 = getelementptr inbounds nuw i8, ptr %0, i64 28
  store i32 %11, ptr %12, align 4, !tbaa !217
  %13 = getelementptr inbounds nuw i8, ptr %6, i64 220
  %14 = load i32, ptr %13, align 4, !tbaa !152
  %15 = sub i32 3, %14
  %16 = mul i32 %15, 536870911
  %17 = getelementptr inbounds nuw i8, ptr %0, i64 32
  store i32 %16, ptr %17, align 8, !tbaa !218
  %18 = getelementptr inbounds nuw i8, ptr %6, i64 380
  %19 = load i32, ptr %18, align 4, !tbaa !151
  %20 = add i32 %19, %11
  %21 = getelementptr inbounds nuw i8, ptr %0, i64 24
  store i32 %20, ptr %21, align 8, !tbaa !216
  %22 = getelementptr inbounds nuw i8, ptr %0, i64 16
  %23 = ptrtoint ptr %6 to i64
  store atomic i64 %23, ptr %22 release, align 8
  %24 = tail call noundef ptr @_ZN3tbb6detail2r117threading_control25register_public_referenceEv()
  br label %_ZN3tbb6detail2r115task_arena_impl6attachERNS0_2d115task_arena_baseE.exit

_ZN3tbb6detail2r115task_arena_impl6attachERNS0_2d115task_arena_baseE.exit: ; preds = %1, %4, %7
  %.0.i = phi i1 [ true, %7 ], [ false, %4 ], [ false, %1 ]
  ret i1 %.0.i
}